target datalayout = "e-m:e-p270:32:32-p271:32:32-p272:64:64-i64:64-i128:128-f80:128-n8:16:32:64-S128"
target triple = "x86_64-pc-linux-gnu"

; Function Attrs: mustprogress noinline nounwind uwtable
define dso_local void @_ZN3Foo4funcEi(i32 noundef %0) #4 align 2 {
  %2 = alloca i32, align 4
  %3 = alloca i32, align 4
  store i32 %0, ptr %2, align 4, !tbaa !4
  call void @llvm.lifetime.start.p0(i64 4, ptr %3) #3
  store volatile i32 82, ptr %3, align 4, !tbaa !4
  %4 = load volatile i32, ptr %3, align 4, !tbaa !4
  call void asm sideeffect "", "~{dirflag},~{fpsr},~{flags}"() #3, !srcloc !9
  call void @llvm.lifetime.end.p0(i64 4, ptr %3) #3
  ret void
}