; Function Attrs: mustprogress noinline nounwind uwtable
define dso_local void @_ZN3Foo4funcEi(i32 %0) #3 align 2 {
  %2 = alloca i32, align 4
  call void @llvm.lifetime.start.p0(i64 4, ptr nonnull %2)
  store volatile i32 82, ptr %2, align 4, !tbaa !4
  %.0..0..0..0. = load volatile i32, ptr %2, align 4, !tbaa !4
  tail call void asm sideeffect "", "~{dirflag},~{fpsr},~{flags}"() #35, !srcloc !9
  call void @llvm.lifetime.end.p0(i64 4, ptr nonnull %2)
  ret void
}